; ModuleID = '54/1320.c'
source_filename = "54/1320.c"
target datalayout = "e-m:e-p270:32:32-p271:32:32-p272:64:64-i64:64-f80:128-n8:16:32:64-S128"
target triple = "x86_64-pc-linux-gnu"

@.str = private unnamed_addr constant [5 x i8] c"%d%d\00", align 1
@.str.1 = private unnamed_addr constant [3 x i8] c"%d\00", align 1

; Function Attrs: noinline nounwind uwtable
define dso_local i32 @main() #0 {
  %1 = alloca i32, align 4
  %2 = alloca i32, align 4
  %3 = alloca i32, align 4
  %4 = alloca i32, align 4
  %5 = alloca i32, align 4
  %6 = alloca i32, align 4
  %7 = alloca i32, align 4
  store i32 0, i32* %1, align 4
  %8 = call i32 (i8*, ...) @__isoc99_scanf(i8* getelementptr inbounds ([5 x i8], [5 x i8]* @.str, i64 0, i64 0), i32* %2, i32* %3)
  store i32 1, i32* %4, align 4
  br label %9

9:                                                ; preds = %32, %0
  %10 = load i32, i32* %4, align 4
  store i32 %10, i32* %5, align 4
  store i32 1, i32* %7, align 4
  store i32 1, i32* %6, align 4
  br label %11

11:                                               ; preds = %24, %9
  %12 = load i32, i32* %6, align 4
  %13 = load i32, i32* %2, align 4
  %14 = icmp sle i32 %12, %13
  br i1 %14, label %15, label %27

15:                                               ; preds = %11
  %16 = load i32, i32* %5, align 4
  %17 = load i32, i32* %2, align 4
  %18 = load i32, i32* %3, align 4
  %19 = call i32 @fun(i32 %16, i32 %17, i32 %18)
  store i32 %19, i32* %5, align 4
  %20 = load i32, i32* %5, align 4
  %21 = icmp eq i32 %20, 0
  br i1 %21, label %22, label %23

22:                                               ; preds = %15
  store i32 0, i32* %7, align 4
  br label %27

23:                                               ; preds = %15
  br label %24

24:                                               ; preds = %23
  %25 = load i32, i32* %6, align 4
  %26 = add nsw i32 %25, 1
  store i32 %26, i32* %6, align 4
  br label %11

27:                                               ; preds = %22, %11
  %28 = load i32, i32* %7, align 4
  %29 = icmp eq i32 %28, 1
  br i1 %29, label %30, label %31

30:                                               ; preds = %27
  br label %35

31:                                               ; preds = %27
  br label %32

32:                                               ; preds = %31
  %33 = load i32, i32* %4, align 4
  %34 = add nsw i32 %33, 1
  store i32 %34, i32* %4, align 4
  br label %9

35:                                               ; preds = %30
  %36 = load i32, i32* %4, align 4
  %37 = call i32 (i8*, ...) @printf(i8* getelementptr inbounds ([3 x i8], [3 x i8]* @.str.1, i64 0, i64 0), i32 %36)
  ret i32 0
}

declare dso_local i32 @__isoc99_scanf(i8*, ...) #1

; Function Attrs: noinline nounwind uwtable
define dso_local i32 @fun(i32 %0, i32 %1, i32 %2) #0 {
  %4 = alloca i32, align 4
  %5 = alloca i32, align 4
  %6 = alloca i32, align 4
  store i32 %0, i32* %4, align 4
  store i32 %1, i32* %5, align 4
  store i32 %2, i32* %6, align 4
  %7 = load i32, i32* %4, align 4
  %8 = load i32, i32* %5, align 4
  %9 = srem i32 %7, %8
  %10 = load i32, i32* %6, align 4
  %11 = icmp ne i32 %9, %10
  br i1 %11, label %12, label %13

12:                                               ; preds = %3
  store i32 0, i32* %4, align 4
  br label %22

13:                                               ; preds = %3
  %14 = load i32, i32* %4, align 4
  %15 = load i32, i32* %6, align 4
  %16 = sub nsw i32 %14, %15
  %17 = load i32, i32* %5, align 4
  %18 = sdiv i32 %16, %17
  %19 = load i32, i32* %5, align 4
  %20 = sub nsw i32 %19, 1
  %21 = mul nsw i32 %18, %20
  store i32 %21, i32* %4, align 4
  br label %22

22:                                               ; preds = %13, %12
  %23 = load i32, i32* %4, align 4
  ret i32 %23
}

declare dso_local i32 @printf(i8*, ...) #1


!llvm.module.flags = !{!0}
!llvm.ident = !{!1}

!0 = !{i32 1, !"wchar_size", i32 4}
!1 = !{!"clang version 10.0.0-4ubuntu1 "}
