; ModuleID = 'source-C-CXX/53/1320.c'
source_filename = "source-C-CXX/53/1320.c"
target datalayout = "e-m:e-p270:32:32-p271:32:32-p272:64:64-i64:64-f80:128-n8:16:32:64-S128"
target triple = "x86_64-pc-linux-gnu"

@.str = private unnamed_addr constant [5 x i8] c"%d%d\00", align 1
@.str.1 = private unnamed_addr constant [3 x i8] c"%d\00", align 1

; Function Attrs: nofree nounwind sspstrong uwtable
define dso_local i32 @main() local_unnamed_addr #0 {
  %1 = alloca i32, align 4
  %2 = alloca i32, align 4
  %3 = bitcast i32* %1 to i8*
  call void @llvm.lifetime.start.p0i8(i64 4, i8* nonnull %3) #4
  %4 = bitcast i32* %2 to i8*
  call void @llvm.lifetime.start.p0i8(i64 4, i8* nonnull %4) #4
  %5 = call i32 (i8*, ...) @__isoc99_scanf(i8* getelementptr inbounds ([5 x i8], [5 x i8]* @.str, i64 0, i64 0), i32* nonnull %1, i32* nonnull %2)
  %6 = load i32, i32* %1, align 4, !tbaa !5
  %7 = load i32, i32* %2, align 4
  %8 = add nsw i32 %6, -1
  %9 = icmp slt i32 %6, 1
  br i1 %9, label %27, label %10

10:                                               ; preds = %0, %25
  %11 = phi i32 [ %26, %25 ], [ 1, %0 ]
  br label %15

12:                                               ; preds = %20
  %13 = add nuw i32 %16, 1
  %14 = icmp eq i32 %16, %6
  br i1 %14, label %27, label %15, !llvm.loop !9

15:                                               ; preds = %10, %12
  %16 = phi i32 [ 1, %10 ], [ %13, %12 ]
  %17 = phi i32 [ %11, %10 ], [ %23, %12 ]
  %18 = srem i32 %17, %6
  %19 = icmp eq i32 %18, %7
  br i1 %19, label %20, label %25

20:                                               ; preds = %15
  %21 = sub nsw i32 %17, %7
  %22 = sdiv i32 %21, %6
  %23 = mul nsw i32 %22, %8
  %24 = icmp eq i32 %23, 0
  br i1 %24, label %25, label %12

25:                                               ; preds = %15, %20
  %26 = add nuw nsw i32 %11, 1
  br label %10

27:                                               ; preds = %12, %0
  %28 = phi i32 [ 1, %0 ], [ %11, %12 ]
  %29 = call i32 (i8*, ...) @printf(i8* nonnull dereferenceable(1) getelementptr inbounds ([3 x i8], [3 x i8]* @.str.1, i64 0, i64 0), i32 %28)
  call void @llvm.lifetime.end.p0i8(i64 4, i8* nonnull %4) #4
  call void @llvm.lifetime.end.p0i8(i64 4, i8* nonnull %3) #4
  ret i32 0
}

; Function Attrs: argmemonly mustprogress nofree nosync nounwind willreturn
declare void @llvm.lifetime.start.p0i8(i64 immarg, i8* nocapture) #1

; Function Attrs: nofree nounwind
declare noundef i32 @__isoc99_scanf(i8* nocapture noundef readonly, ...) local_unnamed_addr #2

; Function Attrs: mustprogress nofree norecurse nosync nounwind readnone sspstrong uwtable willreturn
define dso_local i32 @fun(i32 %0, i32 %1, i32 %2) local_unnamed_addr #3 {
  %4 = srem i32 %0, %1
  %5 = icmp eq i32 %4, %2
  br i1 %5, label %6, label %11

6:                                                ; preds = %3
  %7 = sub nsw i32 %0, %2
  %8 = sdiv i32 %7, %1
  %9 = add nsw i32 %1, -1
  %10 = mul nsw i32 %8, %9
  br label %11

11:                                               ; preds = %3, %6
  %12 = phi i32 [ %10, %6 ], [ 0, %3 ]
  ret i32 %12
}

; Function Attrs: nofree nounwind
declare noundef i32 @printf(i8* nocapture noundef readonly, ...) local_unnamed_addr #2

; Function Attrs: argmemonly mustprogress nofree nosync nounwind willreturn
declare void @llvm.lifetime.end.p0i8(i64 immarg, i8* nocapture) #1


!llvm.module.flags = !{!0, !1, !2, !3}
!llvm.ident = !{!4}

!0 = !{i32 1, !"wchar_size", i32 4}
!1 = !{i32 7, !"PIC Level", i32 2}
!2 = !{i32 7, !"PIE Level", i32 2}
!3 = !{i32 7, !"uwtable", i32 1}
!4 = !{!"clang version 13.0.0"}
!5 = !{!6, !6, i64 0}
!6 = !{!"int", !7, i64 0}
!7 = !{!"omnipotent char", !8, i64 0}
!8 = !{!"Simple C/C++ TBAA"}
!9 = distinct !{!9, !10}
!10 = !{!"llvm.loop.mustprogress"}
